target datalayout = "e-m:e-p270:32:32-p271:32:32-p272:64:64-i64:64-i128:128-f80:128-n8:16:32:64-S128"
target triple = "x86_64-pc-linux-gnu"

@.str.1 = private unnamed_addr constant [9 x i8] c"encode.c\00", align 1
@.str.15 = private unnamed_addr constant [33 x i8] c"invalid input syntax for type %s\00", align 1
@.str.16 = private unnamed_addr constant [6 x i8] c"bytea\00", align 1
@__func__.esc_decode = private unnamed_addr constant [11 x i8] c"esc_decode\00", align 1

; Function Attrs: nounwind uwtable
define internal i64 @esc_decode(ptr noundef %0, i64 noundef %1, ptr noundef %2) #0 {
  %4 = alloca ptr, align 8
  %5 = alloca i64, align 8
  %6 = alloca ptr, align 8
  %7 = alloca ptr, align 8
  %8 = alloca ptr, align 8
  %9 = alloca i64, align 8
  %10 = alloca i32, align 4
  store ptr %0, ptr %4, align 8
  store i64 %1, ptr %5, align 8
  store ptr %2, ptr %6, align 8
  call void @llvm.lifetime.start.p0(i64 8, ptr %7) #6
  %11 = load ptr, ptr %4, align 8
  %12 = load i64, ptr %5, align 8
  %13 = getelementptr inbounds nuw i8, ptr %11, i64 %12
  store ptr %13, ptr %7, align 8
  call void @llvm.lifetime.start.p0(i64 8, ptr %8) #6
  %14 = load ptr, ptr %6, align 8
  store ptr %14, ptr %8, align 8
  call void @llvm.lifetime.start.p0(i64 8, ptr %9) #6
  store i64 0, ptr %9, align 8
  br label %15

15:                                               ; preds = %131, %3
  %16 = load ptr, ptr %4, align 8
  %17 = load ptr, ptr %7, align 8
  %18 = icmp ult ptr %16, %17
  br i1 %18, label %19, label %134

19:                                               ; preds = %15
  %20 = load ptr, ptr %4, align 8
  %21 = getelementptr inbounds i8, ptr %20, i64 0
  %22 = load i8, ptr %21, align 1
  %23 = sext i8 %22 to i32
  %24 = icmp ne i32 %23, 92
  br i1 %24, label %25, label %31

25:                                               ; preds = %19
  %26 = load ptr, ptr %4, align 8
  %27 = getelementptr inbounds nuw i8, ptr %26, i32 1
  store ptr %27, ptr %4, align 8
  %28 = load i8, ptr %26, align 1
  %29 = load ptr, ptr %8, align 8
  %30 = getelementptr inbounds nuw i8, ptr %29, i32 1
  store ptr %30, ptr %8, align 8
  store i8 %28, ptr %29, align 1
  br label %131

31:                                               ; preds = %19
  %32 = load ptr, ptr %4, align 8
  %33 = getelementptr inbounds i8, ptr %32, i64 3
  %34 = load ptr, ptr %7, align 8
  %35 = icmp ult ptr %33, %34
  br i1 %35, label %36, label %101

36:                                               ; preds = %31
  %37 = load ptr, ptr %4, align 8
  %38 = getelementptr inbounds i8, ptr %37, i64 1
  %39 = load i8, ptr %38, align 1
  %40 = sext i8 %39 to i32
  %41 = icmp sge i32 %40, 48
  br i1 %41, label %42, label %101

42:                                               ; preds = %36
  %43 = load ptr, ptr %4, align 8
  %44 = getelementptr inbounds i8, ptr %43, i64 1
  %45 = load i8, ptr %44, align 1
  %46 = sext i8 %45 to i32
  %47 = icmp sle i32 %46, 51
  br i1 %47, label %48, label %101

48:                                               ; preds = %42
  %49 = load ptr, ptr %4, align 8
  %50 = getelementptr inbounds i8, ptr %49, i64 2
  %51 = load i8, ptr %50, align 1
  %52 = sext i8 %51 to i32
  %53 = icmp sge i32 %52, 48
  br i1 %53, label %54, label %101

54:                                               ; preds = %48
  %55 = load ptr, ptr %4, align 8
  %56 = getelementptr inbounds i8, ptr %55, i64 2
  %57 = load i8, ptr %56, align 1
  %58 = sext i8 %57 to i32
  %59 = icmp sle i32 %58, 55
  br i1 %59, label %60, label %101

60:                                               ; preds = %54
  %61 = load ptr, ptr %4, align 8
  %62 = getelementptr inbounds i8, ptr %61, i64 3
  %63 = load i8, ptr %62, align 1
  %64 = sext i8 %63 to i32
  %65 = icmp sge i32 %64, 48
  br i1 %65, label %66, label %101

66:                                               ; preds = %60
  %67 = load ptr, ptr %4, align 8
  %68 = getelementptr inbounds i8, ptr %67, i64 3
  %69 = load i8, ptr %68, align 1
  %70 = sext i8 %69 to i32
  %71 = icmp sle i32 %70, 55
  br i1 %71, label %72, label %101

72:                                               ; preds = %66
  call void @llvm.lifetime.start.p0(i64 4, ptr %10) #6
  %73 = load ptr, ptr %4, align 8
  %74 = getelementptr inbounds i8, ptr %73, i64 1
  %75 = load i8, ptr %74, align 1
  %76 = sext i8 %75 to i32
  %77 = sub i32 %76, 48
  store i32 %77, ptr %10, align 4
  %78 = load i32, ptr %10, align 4
  %79 = shl i32 %78, 3
  store i32 %79, ptr %10, align 4
  %80 = load ptr, ptr %4, align 8
  %81 = getelementptr inbounds i8, ptr %80, i64 2
  %82 = load i8, ptr %81, align 1
  %83 = sext i8 %82 to i32
  %84 = sub i32 %83, 48
  %85 = load i32, ptr %10, align 4
  %86 = add i32 %85, %84
  store i32 %86, ptr %10, align 4
  %87 = load i32, ptr %10, align 4
  %88 = shl i32 %87, 3
  store i32 %88, ptr %10, align 4
  %89 = load i32, ptr %10, align 4
  %90 = load ptr, ptr %4, align 8
  %91 = getelementptr inbounds i8, ptr %90, i64 3
  %92 = load i8, ptr %91, align 1
  %93 = sext i8 %92 to i32
  %94 = sub i32 %93, 48
  %95 = add i32 %89, %94
  %96 = trunc i32 %95 to i8
  %97 = load ptr, ptr %8, align 8
  %98 = getelementptr inbounds nuw i8, ptr %97, i32 1
  store ptr %98, ptr %8, align 8
  store i8 %96, ptr %97, align 1
  %99 = load ptr, ptr %4, align 8
  %100 = getelementptr inbounds i8, ptr %99, i64 4
  store ptr %100, ptr %4, align 8
  call void @llvm.lifetime.end.p0(i64 4, ptr %10) #6
  br label %130

101:                                              ; preds = %66, %60, %54, %48, %42, %36, %31
  %102 = load ptr, ptr %4, align 8
  %103 = getelementptr inbounds i8, ptr %102, i64 1
  %104 = load ptr, ptr %7, align 8
  %105 = icmp ult ptr %103, %104
  br i1 %105, label %106, label %117

106:                                              ; preds = %101
  %107 = load ptr, ptr %4, align 8
  %108 = getelementptr inbounds i8, ptr %107, i64 1
  %109 = load i8, ptr %108, align 1
  %110 = sext i8 %109 to i32
  %111 = icmp eq i32 %110, 92
  br i1 %111, label %112, label %117

112:                                              ; preds = %106
  %113 = load ptr, ptr %8, align 8
  %114 = getelementptr inbounds nuw i8, ptr %113, i32 1
  store ptr %114, ptr %8, align 8
  store i8 92, ptr %113, align 1
  %115 = load ptr, ptr %4, align 8
  %116 = getelementptr inbounds i8, ptr %115, i64 2
  store ptr %116, ptr %4, align 8
  br label %129

117:                                              ; preds = %106, %101
  br label %118

118:                                              ; preds = %117
  br i1 true, label %119, label %121

119:                                              ; preds = %118
  %120 = call zeroext i1 @errstart_cold(i32 noundef 21, ptr noundef null) #7
  br i1 %120, label %123, label %126

121:                                              ; preds = %118
  %122 = call zeroext i1 @errstart(i32 noundef 21, ptr noundef null)
  br i1 %122, label %123, label %126

123:                                              ; preds = %121, %119
  %124 = call i32 @errcode(i32 noundef 33685634)
  %125 = call i32 (ptr, ...) @errmsg(ptr noundef @.str.15, ptr noundef @.str.16)
  call void @errfinish(ptr noundef @.str.1, i32 noundef 513, ptr noundef @__func__.esc_decode)
  br label %126

126:                                              ; preds = %123, %121, %119
  unreachable

127:                                              ; No predecessors!
  br label %128

128:                                              ; preds = %127
  br label %129

129:                                              ; preds = %128, %112
  br label %130

130:                                              ; preds = %129, %72
  br label %131

131:                                              ; preds = %130, %25
  %132 = load i64, ptr %9, align 8
  %133 = add i64 %132, 1
  store i64 %133, ptr %9, align 8
  br label %15, !llvm.loop !13

134:                                              ; preds = %15
  %135 = load i64, ptr %9, align 8
  call void @llvm.lifetime.end.p0(i64 8, ptr %9) #6
  call void @llvm.lifetime.end.p0(i64 8, ptr %8) #6
  call void @llvm.lifetime.end.p0(i64 8, ptr %7) #6
  ret i64 %135
}