; Function Attrs: nounwind uwtable
define internal i64 @esc_decode(ptr noundef readonly captures(address) %0, i64 noundef %1, ptr noundef writeonly captures(none) %2) #0 {
  %4 = getelementptr inbounds nuw i8, ptr %0, i64 %1
  %.not48 = icmp eq i64 %1, 0
  br i1 %.not48, label %._crit_edge, label %.lr.ph

.lr.ph:                                           ; preds = %3, %41
  %.047 = phi ptr [ %.1, %41 ], [ %0, %3 ]
  %.03146 = phi i64 [ %42, %41 ], [ 0, %3 ]
  %.03245 = phi ptr [ %.133, %41 ], [ %2, %3 ]
  %5 = load i8, ptr %.047, align 1
  %.not = icmp eq i8 %5, 92
  br i1 %.not, label %8, label %6

6:                                                ; preds = %.lr.ph
  %7 = getelementptr inbounds nuw i8, ptr %.047, i64 1
  store i8 %5, ptr %.03245, align 1
  br label %41

8:                                                ; preds = %.lr.ph
  %9 = getelementptr inbounds nuw i8, ptr %.047, i64 3
  %10 = icmp ult ptr %9, %4
  br i1 %10, label %11, label %29

11:                                               ; preds = %8
  %12 = getelementptr inbounds nuw i8, ptr %.047, i64 1
  %13 = load i8, ptr %12, align 1
  %14 = and i8 %13, -4
  %or.cond = icmp eq i8 %14, 48
  br i1 %or.cond, label %15, label %29

15:                                               ; preds = %11
  %16 = getelementptr inbounds nuw i8, ptr %.047, i64 2
  %17 = load i8, ptr %16, align 1
  %18 = and i8 %17, -8
  %or.cond42 = icmp eq i8 %18, 48
  br i1 %or.cond42, label %19, label %29

19:                                               ; preds = %15
  %20 = load i8, ptr %9, align 1
  %21 = and i8 %20, -8
  %or.cond43 = icmp eq i8 %21, 48
  br i1 %or.cond43, label %22, label %29

22:                                               ; preds = %19
  %23 = shl i8 %13, 6
  %24 = shl i8 %17, 3
  %25 = and i8 %24, 56
  %26 = or disjoint i8 %25, %23
  %narrow41 = add nsw i8 %20, -48
  %27 = or disjoint i8 %narrow41, %26
  store i8 %27, ptr %.03245, align 1
  %28 = getelementptr inbounds nuw i8, ptr %.047, i64 4
  br label %41

29:                                               ; preds = %19, %15, %11, %8
  %30 = getelementptr inbounds nuw i8, ptr %.047, i64 1
  %31 = icmp ult ptr %30, %4
  br i1 %31, label %32, label %37

32:                                               ; preds = %29
  %33 = load i8, ptr %30, align 1
  %34 = icmp eq i8 %33, 92
  br i1 %34, label %35, label %37

35:                                               ; preds = %32
  store i8 92, ptr %.03245, align 1
  %36 = getelementptr inbounds nuw i8, ptr %.047, i64 2
  br label %41

37:                                               ; preds = %32, %29
  %38 = tail call zeroext i1 @errstart_cold(i32 noundef 21, ptr noundef null) #8
  tail call void @llvm.assume(i1 %38)
  %39 = tail call i32 @errcode(i32 noundef 33685634) #7
  %40 = tail call i32 (ptr, ...) @errmsg(ptr noundef nonnull @.str.15, ptr noundef nonnull @.str.16) #7
  tail call void @errfinish(ptr noundef nonnull @.str.1, i32 noundef 513, ptr noundef nonnull @__func__.esc_decode) #7
  unreachable

41:                                               ; preds = %22, %35, %6
  %.1 = phi ptr [ %7, %6 ], [ %28, %22 ], [ %36, %35 ]
  %.133 = getelementptr inbounds nuw i8, ptr %.03245, i64 1
  %42 = add i64 %.03146, 1
  %43 = icmp ult ptr %.1, %4
  br i1 %43, label %.lr.ph, label %._crit_edge, !llvm.loop !13

._crit_edge:                                      ; preds = %41, %3
  %.031.lcssa = phi i64 [ 0, %3 ], [ %42, %41 ]
  ret i64 %.031.lcssa
}